target datalayout = "e-m:e-p270:32:32-p271:32:32-p272:64:64-i64:64-i128:128-f80:128-n8:16:32:64-S128"
target triple = "x86_64-pc-linux-gnu"

; Function Attrs: nounwind uwtable
define internal i64 @watchccs_ctrl(ptr noundef %0, i32 noundef %1, i64 noundef %2, ptr noundef %3) #0 {
  %5 = alloca i64, align 8
  %6 = alloca ptr, align 8
  %7 = alloca i32, align 4
  %8 = alloca i64, align 8
  %9 = alloca ptr, align 8
  %10 = alloca i64, align 8
  %11 = alloca ptr, align 8
  %12 = alloca i32, align 4
  store ptr %0, ptr %6, align 8, !tbaa !19
  store i32 %1, ptr %7, align 4, !tbaa !9
  store i64 %2, ptr %8, align 8, !tbaa !17
  store ptr %3, ptr %9, align 8, !tbaa !25
  call void @llvm.lifetime.start.p0(i64 8, ptr %10) #6
  call void @llvm.lifetime.start.p0(i64 8, ptr %11) #6
  %13 = load ptr, ptr %6, align 8, !tbaa !19
  %14 = call ptr @BIO_next(ptr noundef %13)
  store ptr %14, ptr %11, align 8, !tbaa !19
  %15 = load ptr, ptr %11, align 8, !tbaa !19
  %16 = icmp eq ptr %15, null
  br i1 %16, label %17, label %18

17:                                               ; preds = %4
  store i64 0, ptr %5, align 8
  store i32 1, ptr %12, align 4
  br label %29

18:                                               ; preds = %4
  %19 = load i32, ptr %7, align 4, !tbaa !9
  switch i32 %19, label %21 [
    i32 12, label %20
  ]

20:                                               ; preds = %18
  store i64 0, ptr %10, align 8, !tbaa !17
  br label %27

21:                                               ; preds = %18
  %22 = load ptr, ptr %11, align 8, !tbaa !19
  %23 = load i32, ptr %7, align 4, !tbaa !9
  %24 = load i64, ptr %8, align 8, !tbaa !17
  %25 = load ptr, ptr %9, align 8, !tbaa !25
  %26 = call i64 @BIO_ctrl(ptr noundef %22, i32 noundef %23, i64 noundef %24, ptr noundef %25)
  store i64 %26, ptr %10, align 8, !tbaa !17
  br label %27

27:                                               ; preds = %21, %20
  %28 = load i64, ptr %10, align 8, !tbaa !17
  store i64 %28, ptr %5, align 8
  store i32 1, ptr %12, align 4
  br label %29

29:                                               ; preds = %27, %17
  call void @llvm.lifetime.end.p0(i64 8, ptr %11) #6
  call void @llvm.lifetime.end.p0(i64 8, ptr %10) #6
  %30 = load i64, ptr %5, align 8
  ret i64 %30
}